target datalayout = "e-m:e-p270:32:32-p271:32:32-p272:64:64-i64:64-i128:128-f80:128-n8:16:32:64-S128"
target triple = "x86_64-pc-linux-gnu"

%struct._zend_phpdbg_globals = type { [11 x %struct._zend_array], %struct._zend_array, %struct._zend_array, ptr, ptr, %struct.phpdbg_frame_t, i32, ptr, %struct.phpdbg_lexer_data, ptr, %struct.sigaction, i32, i64, %struct.phpdbg_btree, %struct.phpdbg_btree, %struct._zend_array, %struct._zend_array, %struct._zend_array, %struct._zend_array, ptr, ptr, i8, ptr, ptr, ptr, i64, ptr, %struct._zval_struct, i32, i32, i8, i8, ptr, ptr, ptr, %struct._zend_array, ptr, ptr, ptr, [3 x %struct.anon.8], ptr, %struct.anon.9, i64, [2 x ptr], [3 x ptr], ptr, i8, ptr, ptr, [500 x i8], i32, %struct.phpdbg_signal_safe_mem, ptr, i64, ptr, i64 }
%struct.phpdbg_frame_t = type { i32, ptr, ptr }
%struct.phpdbg_lexer_data = type { i32, ptr, ptr, ptr, ptr, i32 }
%struct.sigaction = type { %union.anon.2, %struct.__sigset_t, i32, ptr }
%union.anon.2 = type { ptr }
%struct.__sigset_t = type { [16 x i64] }
%struct.phpdbg_btree = type { i64, i64, i8, ptr }
%struct._zval_struct = type { %union._zend_value, %union.anon.4, %union.anon.7 }
%union._zend_value = type { i64 }
%union.anon.4 = type { i32 }
%union.anon.7 = type { i32 }
%struct._zend_array = type { %struct._zend_refcounted_h, %union.anon.0, i32, %union.anon.1, i32, i32, i32, i32, i64, ptr }
%struct._zend_refcounted_h = type { i32, %union.anon }
%union.anon = type { i32 }
%union.anon.0 = type { i32 }
%union.anon.1 = type { ptr }
%struct.anon.8 = type { i32 }
%struct.anon.9 = type { i8, i32, i32, ptr, i32 }
%struct.phpdbg_signal_safe_mem = type { ptr, i8, ptr, ptr }
%struct._phpdbg_breakline_t = type { i32, i8, i64, i8, ptr, i64, ptr }

@phpdbg_globals = external global %struct._zend_phpdbg_globals, align 8
@.str.25 = private unnamed_addr constant [29 x i8] c"Breakpoint #%d added at #%lu\00", align 1
@.str.26 = private unnamed_addr constant [26 x i8] c"Breakpoint exists at #%lu\00", align 1

; Function Attrs: nounwind uwtable
define internal void @_phpdbg_break_mapping(i32 noundef %0, ptr noundef %1) #0 {
  %3 = alloca ptr, align 8
  %4 = alloca i64, align 8
  %5 = alloca ptr, align 8
  %6 = alloca %struct._zval_struct, align 8
  %7 = alloca ptr, align 8
  %8 = alloca i32, align 4
  %9 = alloca ptr, align 8
  store i32 %0, ptr %8, align 4
  store ptr %1, ptr %9, align 8
  %10 = load i32, ptr %8, align 4
  %11 = sext i32 %10 to i64
  %12 = load ptr, ptr %9, align 8
  store ptr getelementptr inbounds ([11 x %struct._zend_array], ptr @phpdbg_globals, i64 0, i64 10), ptr %3, align 8
  store i64 %11, ptr %4, align 8
  store ptr %12, ptr %5, align 8
  %13 = load ptr, ptr %5, align 8
  store ptr %13, ptr %6, align 8
  %14 = getelementptr inbounds %struct._zval_struct, ptr %6, i32 0, i32 1
  store i32 13, ptr %14, align 8
  %15 = load ptr, ptr %3, align 8
  %16 = load i64, ptr %4, align 8
  %17 = call ptr @zend_hash_index_update(ptr noundef %15, i64 noundef %16, ptr noundef %6) #11
  store ptr %17, ptr %7, align 8
  %18 = load ptr, ptr %7, align 8
  %19 = load ptr, ptr %18, align 8
  %20 = icmp ne ptr %19, null
  call void @llvm.assume(i1 %20)
  ret void
}

; Function Attrs: nounwind uwtable
define void @phpdbg_set_breakpoint_opline(i64 noundef %0) #0 {
  %2 = alloca ptr, align 8
  %3 = alloca i64, align 8
  %4 = alloca ptr, align 8
  %5 = alloca %struct._zval_struct, align 8
  %6 = alloca ptr, align 8
  %7 = alloca i32, align 4
  %8 = alloca ptr, align 8
  %9 = alloca i64, align 8
  %10 = alloca ptr, align 8
  %11 = alloca i64, align 8
  %12 = alloca ptr, align 8
  %13 = alloca ptr, align 8
  %14 = alloca i64, align 8
  %15 = alloca i64, align 8
  %16 = alloca %struct._phpdbg_breakline_t, align 8
  store i64 %0, ptr %15, align 8
  %17 = load i64, ptr %15, align 8
  store ptr getelementptr inbounds ([11 x %struct._zend_array], ptr @phpdbg_globals, i64 0, i64 3), ptr %13, align 8
  store i64 %17, ptr %14, align 8
  %18 = load ptr, ptr %13, align 8
  %19 = load i64, ptr %14, align 8
  %20 = call ptr @zend_hash_index_find(ptr noundef %18, i64 noundef %19) #11
  %21 = icmp ne ptr %20, null
  br i1 %21, label %301, label %22

22:                                               ; preds = %1
  %23 = load i64, ptr getelementptr inbounds (%struct._zend_phpdbg_globals, ptr @phpdbg_globals, i32 0, i32 53), align 8
  %24 = or i64 %23, 16
  store i64 %24, ptr getelementptr inbounds (%struct._zend_phpdbg_globals, ptr @phpdbg_globals, i32 0, i32 53), align 8
  br label %25

25:                                               ; preds = %22
  call void @llvm.memset.p0.i64(ptr align 8 %16, i8 0, i64 48, i1 false)
  %26 = load i32, ptr getelementptr inbounds (%struct._zend_phpdbg_globals, ptr @phpdbg_globals, i32 0, i32 28), align 8
  %27 = add nsw i32 %26, 1
  store i32 %27, ptr getelementptr inbounds (%struct._zend_phpdbg_globals, ptr @phpdbg_globals, i32 0, i32 28), align 8
  %28 = getelementptr inbounds %struct._phpdbg_breakline_t, ptr %16, i32 0, i32 0
  store i32 %26, ptr %28, align 8
  %29 = getelementptr inbounds %struct._phpdbg_breakline_t, ptr %16, i32 0, i32 1
  store i8 3, ptr %29, align 4
  %30 = getelementptr inbounds %struct._phpdbg_breakline_t, ptr %16, i32 0, i32 3
  store i8 0, ptr %30, align 8
  %31 = getelementptr inbounds %struct._phpdbg_breakline_t, ptr %16, i32 0, i32 2
  store i64 0, ptr %31, align 8
  br label %32

32:                                               ; preds = %25
  %33 = getelementptr inbounds %struct._phpdbg_breakline_t, ptr %16, i32 0, i32 4
  store ptr null, ptr %33, align 8
  %34 = load i64, ptr %15, align 8
  %35 = getelementptr inbounds %struct._phpdbg_breakline_t, ptr %16, i32 0, i32 5
  store i64 %34, ptr %35, align 8
  %36 = getelementptr inbounds %struct._phpdbg_breakline_t, ptr %16, i32 0, i32 6
  store ptr null, ptr %36, align 8
  %37 = load i64, ptr %15, align 8
  store ptr getelementptr inbounds ([11 x %struct._zend_array], ptr @phpdbg_globals, i64 0, i64 3), ptr %8, align 8
  store i64 %37, ptr %9, align 8
  store ptr %16, ptr %10, align 8
  store i64 48, ptr %11, align 8
  %38 = load ptr, ptr %8, align 8
  %39 = getelementptr inbounds %struct._zend_refcounted_h, ptr %38, i32 0, i32 1
  %40 = load i32, ptr %39, align 4
  store i32 %40, ptr %7, align 4
  %41 = load i32, ptr %7, align 4
  %42 = and i32 %41, 1008
  %43 = and i32 %42, 128
  %44 = icmp ne i32 %43, 0
  br i1 %44, label %45, label %48

45:                                               ; preds = %32
  %46 = load i64, ptr %11, align 8
  %47 = call noalias ptr @__zend_malloc(i64 noundef %46) #12
  br label %277

48:                                               ; preds = %32
  %49 = load i64, ptr %11, align 8
  %50 = call i1 @llvm.is.constant.i64(i64 %49)
  br i1 %50, label %51, label %272

51:                                               ; preds = %48
  %52 = load i64, ptr %11, align 8
  %53 = icmp ule i64 %52, 8
  br i1 %53, label %54, label %56

54:                                               ; preds = %51
  %55 = call noalias ptr @_emalloc_8() #11
  br label %270

56:                                               ; preds = %51
  %57 = load i64, ptr %11, align 8
  %58 = icmp ule i64 %57, 16
  br i1 %58, label %59, label %61

59:                                               ; preds = %56
  %60 = call noalias ptr @_emalloc_16() #11
  br label %268

61:                                               ; preds = %56
  %62 = load i64, ptr %11, align 8
  %63 = icmp ule i64 %62, 24
  br i1 %63, label %64, label %66

64:                                               ; preds = %61
  %65 = call noalias ptr @_emalloc_24() #11
  br label %266

66:                                               ; preds = %61
  %67 = load i64, ptr %11, align 8
  %68 = icmp ule i64 %67, 32
  br i1 %68, label %69, label %71

69:                                               ; preds = %66
  %70 = call noalias ptr @_emalloc_32() #11
  br label %264

71:                                               ; preds = %66
  %72 = load i64, ptr %11, align 8
  %73 = icmp ule i64 %72, 40
  br i1 %73, label %74, label %76

74:                                               ; preds = %71
  %75 = call noalias ptr @_emalloc_40() #11
  br label %262

76:                                               ; preds = %71
  %77 = load i64, ptr %11, align 8
  %78 = icmp ule i64 %77, 48
  br i1 %78, label %79, label %81

79:                                               ; preds = %76
  %80 = call noalias ptr @_emalloc_48() #11
  br label %260

81:                                               ; preds = %76
  %82 = load i64, ptr %11, align 8
  %83 = icmp ule i64 %82, 56
  br i1 %83, label %84, label %86

84:                                               ; preds = %81
  %85 = call noalias ptr @_emalloc_56() #11
  br label %258

86:                                               ; preds = %81
  %87 = load i64, ptr %11, align 8
  %88 = icmp ule i64 %87, 64
  br i1 %88, label %89, label %91

89:                                               ; preds = %86
  %90 = call noalias ptr @_emalloc_64() #11
  br label %256

91:                                               ; preds = %86
  %92 = load i64, ptr %11, align 8
  %93 = icmp ule i64 %92, 80
  br i1 %93, label %94, label %96

94:                                               ; preds = %91
  %95 = call noalias ptr @_emalloc_80() #11
  br label %254

96:                                               ; preds = %91
  %97 = load i64, ptr %11, align 8
  %98 = icmp ule i64 %97, 96
  br i1 %98, label %99, label %101

99:                                               ; preds = %96
  %100 = call noalias ptr @_emalloc_96() #11
  br label %252

101:                                              ; preds = %96
  %102 = load i64, ptr %11, align 8
  %103 = icmp ule i64 %102, 112
  br i1 %103, label %104, label %106

104:                                              ; preds = %101
  %105 = call noalias ptr @_emalloc_112() #11
  br label %250

106:                                              ; preds = %101
  %107 = load i64, ptr %11, align 8
  %108 = icmp ule i64 %107, 128
  br i1 %108, label %109, label %111

109:                                              ; preds = %106
  %110 = call noalias ptr @_emalloc_128() #11
  br label %248

111:                                              ; preds = %106
  %112 = load i64, ptr %11, align 8
  %113 = icmp ule i64 %112, 160
  br i1 %113, label %114, label %116

114:                                              ; preds = %111
  %115 = call noalias ptr @_emalloc_160() #11
  br label %246

116:                                              ; preds = %111
  %117 = load i64, ptr %11, align 8
  %118 = icmp ule i64 %117, 192
  br i1 %118, label %119, label %121

119:                                              ; preds = %116
  %120 = call noalias ptr @_emalloc_192() #11
  br label %244

121:                                              ; preds = %116
  %122 = load i64, ptr %11, align 8
  %123 = icmp ule i64 %122, 224
  br i1 %123, label %124, label %126

124:                                              ; preds = %121
  %125 = call noalias ptr @_emalloc_224() #11
  br label %242

126:                                              ; preds = %121
  %127 = load i64, ptr %11, align 8
  %128 = icmp ule i64 %127, 256
  br i1 %128, label %129, label %131

129:                                              ; preds = %126
  %130 = call noalias ptr @_emalloc_256() #11
  br label %240

131:                                              ; preds = %126
  %132 = load i64, ptr %11, align 8
  %133 = icmp ule i64 %132, 320
  br i1 %133, label %134, label %136

134:                                              ; preds = %131
  %135 = call noalias ptr @_emalloc_320() #11
  br label %238

136:                                              ; preds = %131
  %137 = load i64, ptr %11, align 8
  %138 = icmp ule i64 %137, 384
  br i1 %138, label %139, label %141

139:                                              ; preds = %136
  %140 = call noalias ptr @_emalloc_384() #11
  br label %236

141:                                              ; preds = %136
  %142 = load i64, ptr %11, align 8
  %143 = icmp ule i64 %142, 448
  br i1 %143, label %144, label %146

144:                                              ; preds = %141
  %145 = call noalias ptr @_emalloc_448() #11
  br label %234

146:                                              ; preds = %141
  %147 = load i64, ptr %11, align 8
  %148 = icmp ule i64 %147, 512
  br i1 %148, label %149, label %151

149:                                              ; preds = %146
  %150 = call noalias ptr @_emalloc_512() #11
  br label %232

151:                                              ; preds = %146
  %152 = load i64, ptr %11, align 8
  %153 = icmp ule i64 %152, 640
  br i1 %153, label %154, label %156

154:                                              ; preds = %151
  %155 = call noalias ptr @_emalloc_640() #11
  br label %230

156:                                              ; preds = %151
  %157 = load i64, ptr %11, align 8
  %158 = icmp ule i64 %157, 768
  br i1 %158, label %159, label %161

159:                                              ; preds = %156
  %160 = call noalias ptr @_emalloc_768() #11
  br label %228

161:                                              ; preds = %156
  %162 = load i64, ptr %11, align 8
  %163 = icmp ule i64 %162, 896
  br i1 %163, label %164, label %166

164:                                              ; preds = %161
  %165 = call noalias ptr @_emalloc_896() #11
  br label %226

166:                                              ; preds = %161
  %167 = load i64, ptr %11, align 8
  %168 = icmp ule i64 %167, 1024
  br i1 %168, label %169, label %171

169:                                              ; preds = %166
  %170 = call noalias ptr @_emalloc_1024() #11
  br label %224

171:                                              ; preds = %166
  %172 = load i64, ptr %11, align 8
  %173 = icmp ule i64 %172, 1280
  br i1 %173, label %174, label %176

174:                                              ; preds = %171
  %175 = call noalias ptr @_emalloc_1280() #11
  br label %222

176:                                              ; preds = %171
  %177 = load i64, ptr %11, align 8
  %178 = icmp ule i64 %177, 1536
  br i1 %178, label %179, label %181

179:                                              ; preds = %176
  %180 = call noalias ptr @_emalloc_1536() #11
  br label %220

181:                                              ; preds = %176
  %182 = load i64, ptr %11, align 8
  %183 = icmp ule i64 %182, 1792
  br i1 %183, label %184, label %186

184:                                              ; preds = %181
  %185 = call noalias ptr @_emalloc_1792() #11
  br label %218

186:                                              ; preds = %181
  %187 = load i64, ptr %11, align 8
  %188 = icmp ule i64 %187, 2048
  br i1 %188, label %189, label %191

189:                                              ; preds = %186
  %190 = call noalias ptr @_emalloc_2048() #11
  br label %216

191:                                              ; preds = %186
  %192 = load i64, ptr %11, align 8
  %193 = icmp ule i64 %192, 2560
  br i1 %193, label %194, label %196

194:                                              ; preds = %191
  %195 = call noalias ptr @_emalloc_2560() #11
  br label %214

196:                                              ; preds = %191
  %197 = load i64, ptr %11, align 8
  %198 = icmp ule i64 %197, 3072
  br i1 %198, label %199, label %201

199:                                              ; preds = %196
  %200 = call noalias ptr @_emalloc_3072() #11
  br label %212

201:                                              ; preds = %196
  %202 = load i64, ptr %11, align 8
  %203 = icmp ule i64 %202, 2093056
  br i1 %203, label %204, label %207

204:                                              ; preds = %201
  %205 = load i64, ptr %11, align 8
  %206 = call noalias ptr @_emalloc_large(i64 noundef %205) #12
  br label %210

207:                                              ; preds = %201
  %208 = load i64, ptr %11, align 8
  %209 = call noalias ptr @_emalloc_huge(i64 noundef %208) #12
  br label %210

210:                                              ; preds = %207, %204
  %211 = phi ptr [ %206, %204 ], [ %209, %207 ]
  br label %212

212:                                              ; preds = %210, %199
  %213 = phi ptr [ %200, %199 ], [ %211, %210 ]
  br label %214

214:                                              ; preds = %212, %194
  %215 = phi ptr [ %195, %194 ], [ %213, %212 ]
  br label %216

216:                                              ; preds = %214, %189
  %217 = phi ptr [ %190, %189 ], [ %215, %214 ]
  br label %218

218:                                              ; preds = %216, %184
  %219 = phi ptr [ %185, %184 ], [ %217, %216 ]
  br label %220

220:                                              ; preds = %218, %179
  %221 = phi ptr [ %180, %179 ], [ %219, %218 ]
  br label %222

222:                                              ; preds = %220, %174
  %223 = phi ptr [ %175, %174 ], [ %221, %220 ]
  br label %224

224:                                              ; preds = %222, %169
  %225 = phi ptr [ %170, %169 ], [ %223, %222 ]
  br label %226

226:                                              ; preds = %224, %164
  %227 = phi ptr [ %165, %164 ], [ %225, %224 ]
  br label %228

228:                                              ; preds = %226, %159
  %229 = phi ptr [ %160, %159 ], [ %227, %226 ]
  br label %230

230:                                              ; preds = %228, %154
  %231 = phi ptr [ %155, %154 ], [ %229, %228 ]
  br label %232

232:                                              ; preds = %230, %149
  %233 = phi ptr [ %150, %149 ], [ %231, %230 ]
  br label %234

234:                                              ; preds = %232, %144
  %235 = phi ptr [ %145, %144 ], [ %233, %232 ]
  br label %236

236:                                              ; preds = %234, %139
  %237 = phi ptr [ %140, %139 ], [ %235, %234 ]
  br label %238

238:                                              ; preds = %236, %134
  %239 = phi ptr [ %135, %134 ], [ %237, %236 ]
  br label %240

240:                                              ; preds = %238, %129
  %241 = phi ptr [ %130, %129 ], [ %239, %238 ]
  br label %242

242:                                              ; preds = %240, %124
  %243 = phi ptr [ %125, %124 ], [ %241, %240 ]
  br label %244

244:                                              ; preds = %242, %119
  %245 = phi ptr [ %120, %119 ], [ %243, %242 ]
  br label %246

246:                                              ; preds = %244, %114
  %247 = phi ptr [ %115, %114 ], [ %245, %244 ]
  br label %248

248:                                              ; preds = %246, %109
  %249 = phi ptr [ %110, %109 ], [ %247, %246 ]
  br label %250

250:                                              ; preds = %248, %104
  %251 = phi ptr [ %105, %104 ], [ %249, %248 ]
  br label %252

252:                                              ; preds = %250, %99
  %253 = phi ptr [ %100, %99 ], [ %251, %250 ]
  br label %254

254:                                              ; preds = %252, %94
  %255 = phi ptr [ %95, %94 ], [ %253, %252 ]
  br label %256

256:                                              ; preds = %254, %89
  %257 = phi ptr [ %90, %89 ], [ %255, %254 ]
  br label %258

258:                                              ; preds = %256, %84
  %259 = phi ptr [ %85, %84 ], [ %257, %256 ]
  br label %260

260:                                              ; preds = %258, %79
  %261 = phi ptr [ %80, %79 ], [ %259, %258 ]
  br label %262

262:                                              ; preds = %260, %74
  %263 = phi ptr [ %75, %74 ], [ %261, %260 ]
  br label %264

264:                                              ; preds = %262, %69
  %265 = phi ptr [ %70, %69 ], [ %263, %262 ]
  br label %266

266:                                              ; preds = %264, %64
  %267 = phi ptr [ %65, %64 ], [ %265, %264 ]
  br label %268

268:                                              ; preds = %266, %59
  %269 = phi ptr [ %60, %59 ], [ %267, %266 ]
  br label %270

270:                                              ; preds = %268, %54
  %271 = phi ptr [ %55, %54 ], [ %269, %268 ]
  br label %275

272:                                              ; preds = %48
  %273 = load i64, ptr %11, align 8
  %274 = call noalias ptr @_emalloc(i64 noundef %273) #12
  br label %275

275:                                              ; preds = %272, %270
  %276 = phi ptr [ %271, %270 ], [ %274, %272 ]
  br label %277

277:                                              ; preds = %275, %45
  %278 = phi ptr [ %47, %45 ], [ %276, %275 ]
  store ptr %278, ptr %12, align 8
  %279 = load ptr, ptr %12, align 8
  %280 = load ptr, ptr %10, align 8
  %281 = load i64, ptr %11, align 8
  call void @llvm.memcpy.p0.p0.i64(ptr align 1 %279, ptr align 1 %280, i64 %281, i1 false)
  %282 = load ptr, ptr %8, align 8
  %283 = load i64, ptr %9, align 8
  %284 = load ptr, ptr %12, align 8
  store ptr %282, ptr %2, align 8
  store i64 %283, ptr %3, align 8
  store ptr %284, ptr %4, align 8
  %285 = load ptr, ptr %4, align 8
  store ptr %285, ptr %5, align 8
  %286 = getelementptr inbounds %struct._zval_struct, ptr %5, i32 0, i32 1
  store i32 13, ptr %286, align 8
  %287 = load ptr, ptr %2, align 8
  %288 = load i64, ptr %3, align 8
  %289 = call ptr @zend_hash_index_update(ptr noundef %287, i64 noundef %288, ptr noundef %5) #11
  store ptr %289, ptr %6, align 8
  %290 = load ptr, ptr %6, align 8
  %291 = load ptr, ptr %290, align 8
  %292 = icmp ne ptr %291, null
  call void @llvm.assume(i1 %292)
  %293 = load i32, ptr getelementptr inbounds (%struct._zend_phpdbg_globals, ptr @phpdbg_globals, i32 0, i32 39, i64 1), align 4
  %294 = getelementptr inbounds %struct._phpdbg_breakline_t, ptr %16, i32 0, i32 0
  %295 = load i32, ptr %294, align 8
  %296 = getelementptr inbounds %struct._phpdbg_breakline_t, ptr %16, i32 0, i32 5
  %297 = load i64, ptr %296, align 8
  %298 = call i32 (i32, i32, ptr, ...) @phpdbg_print(i32 noundef 2, i32 noundef %293, ptr noundef @.str.25, i32 noundef %295, i64 noundef %297)
  %299 = getelementptr inbounds %struct._phpdbg_breakline_t, ptr %16, i32 0, i32 0
  %300 = load i32, ptr %299, align 8
  call void @_phpdbg_break_mapping(i32 noundef %300, ptr noundef getelementptr inbounds ([11 x %struct._zend_array], ptr @phpdbg_globals, i64 0, i64 3))
  br label %305

301:                                              ; preds = %1
  %302 = load i32, ptr getelementptr inbounds (%struct._zend_phpdbg_globals, ptr @phpdbg_globals, i32 0, i32 39, i64 1), align 4
  %303 = load i64, ptr %15, align 8
  %304 = call i32 (i32, i32, ptr, ...) @phpdbg_print(i32 noundef 1, i32 noundef %302, ptr noundef @.str.26, i64 noundef %303)
  br label %305

305:                                              ; preds = %301, %277
  ret void
}