; Function Attrs: nounwind uwtable
define void @phpdbg_set_breakpoint_opline(i64 noundef %0) local_unnamed_addr #1 {
  %2 = alloca %struct._zval_struct, align 8
  %3 = alloca %struct._zval_struct, align 8
  %4 = tail call ptr @zend_hash_index_find(ptr noundef nonnull getelementptr inbounds (%struct._zend_phpdbg_globals, ptr @phpdbg_globals, i64 0, i32 0, i64 3), i64 noundef %0) #14
  %.not = icmp eq ptr %4, null
  br i1 %.not, label %5, label %29

5:                                                ; preds = %1
  %6 = load i64, ptr getelementptr inbounds (%struct._zend_phpdbg_globals, ptr @phpdbg_globals, i64 0, i32 53), align 8
  %7 = or i64 %6, 16
  store i64 %7, ptr getelementptr inbounds (%struct._zend_phpdbg_globals, ptr @phpdbg_globals, i64 0, i32 53), align 8
  %8 = load i32, ptr getelementptr inbounds (%struct._zend_phpdbg_globals, ptr @phpdbg_globals, i64 0, i32 28), align 8
  %9 = add nsw i32 %8, 1
  store i32 %9, ptr getelementptr inbounds (%struct._zend_phpdbg_globals, ptr @phpdbg_globals, i64 0, i32 28), align 8
  %10 = load i32, ptr getelementptr inbounds (%struct._zend_phpdbg_globals, ptr @phpdbg_globals, i64 0, i32 0, i64 3, i32 0, i32 1), align 4
  %11 = and i32 %10, 128
  %.not59 = icmp eq i32 %11, 0
  br i1 %.not59, label %14, label %12

12:                                               ; preds = %5
  %13 = tail call noalias dereferenceable_or_null(48) ptr @__zend_malloc(i64 noundef 48) #16
  br label %16

14:                                               ; preds = %5
  %15 = tail call noalias ptr @_emalloc_48() #14
  br label %16

16:                                               ; preds = %14, %12
  %17 = phi ptr [ %13, %12 ], [ %15, %14 ]
  store i32 %8, ptr %17, align 1
  %.sroa.5.0..sroa_idx = getelementptr inbounds i8, ptr %17, i64 4
  store i8 3, ptr %.sroa.5.0..sroa_idx, align 1
  %.sroa.6.0..sroa_idx = getelementptr inbounds i8, ptr %17, i64 5
  %.sroa.9.0..sroa_idx = getelementptr inbounds i8, ptr %17, i64 32
  tail call void @llvm.memset.p0.i64(ptr noundef nonnull align 1 dereferenceable(27) %.sroa.6.0..sroa_idx, i8 0, i64 27, i1 false)
  store i64 %0, ptr %.sroa.9.0..sroa_idx, align 1
  %.sroa.11.0..sroa_idx = getelementptr inbounds i8, ptr %17, i64 40
  store ptr null, ptr %.sroa.11.0..sroa_idx, align 1
  store ptr %17, ptr %3, align 8
  %18 = getelementptr inbounds i8, ptr %3, i64 8
  store i32 13, ptr %18, align 8
  %19 = call ptr @zend_hash_index_update(ptr noundef nonnull getelementptr inbounds (%struct._zend_phpdbg_globals, ptr @phpdbg_globals, i64 0, i32 0, i64 3), i64 noundef %0, ptr noundef nonnull %3) #14
  %20 = load ptr, ptr %19, align 8
  %21 = icmp ne ptr %20, null
  call void @llvm.assume(i1 %21)
  %22 = load i32, ptr getelementptr inbounds (%struct._zend_phpdbg_globals, ptr @phpdbg_globals, i64 0, i32 39, i64 1), align 4
  %23 = call i32 (i32, i32, ptr, ...) @phpdbg_print(i32 noundef 2, i32 noundef %22, ptr noundef nonnull @.str.25, i32 noundef %8, i64 noundef %0) #14
  call void @llvm.lifetime.start.p0(i64 16, ptr nonnull %2)
  %24 = sext i32 %8 to i64
  store ptr getelementptr inbounds (%struct._zend_phpdbg_globals, ptr @phpdbg_globals, i64 0, i32 0, i64 3), ptr %2, align 8
  %25 = getelementptr inbounds i8, ptr %2, i64 8
  store i32 13, ptr %25, align 8
  %26 = call ptr @zend_hash_index_update(ptr noundef nonnull getelementptr inbounds (%struct._zend_phpdbg_globals, ptr @phpdbg_globals, i64 0, i32 0, i64 10), i64 noundef %24, ptr noundef nonnull %2) #14
  %27 = load ptr, ptr %26, align 8
  %28 = icmp ne ptr %27, null
  call void @llvm.assume(i1 %28)
  call void @llvm.lifetime.end.p0(i64 16, ptr nonnull %2)
  br label %32

29:                                               ; preds = %1
  %30 = load i32, ptr getelementptr inbounds (%struct._zend_phpdbg_globals, ptr @phpdbg_globals, i64 0, i32 39, i64 1), align 4
  %31 = tail call i32 (i32, i32, ptr, ...) @phpdbg_print(i32 noundef 1, i32 noundef %30, ptr noundef nonnull @.str.26, i64 noundef %0) #14
  br label %32

32:                                               ; preds = %29, %16
  ret void
}